target datalayout = "e-m:e-p270:32:32-p271:32:32-p272:64:64-i64:64-i128:128-f80:128-n8:16:32:64-S128"
target triple = "x86_64-pc-linux-gnu"

%struct.slice_buffer_s = type { ptr, ptr, i32, i32, i32, i32, ptr }
%struct.SnowContext = type { ptr, ptr, %struct.RangeCoder, %struct.HpelDSPContext, %struct.VideoDSPContext, %struct.H264QpelContext, %struct.SnowDWTContext, ptr, ptr, [8 x ptr], ptr, [32 x i8], [4224 x i8], i32, i32, i32, i32, i32, i32, i32, i32, i32, i32, i32, [8 x ptr], [8 x ptr], ptr, ptr, ptr, ptr, ptr, i32, i32, i32, i32, i32, i32, i32, i32, i32, i32, i32, i32, i32, i32, i32, [4 x %struct.Plane], ptr, %struct.slice_buffer_s, ptr, ptr, ptr, i32, i32 }
%struct.RangeCoder = type { i32, i32, i32, i32, [256 x i8], [256 x i8], ptr, ptr, ptr, i32 }
%struct.HpelDSPContext = type { [4 x [4 x ptr]], [4 x [4 x ptr]], [4 x [4 x ptr]], [4 x ptr] }
%struct.VideoDSPContext = type { ptr, ptr }
%struct.H264QpelContext = type { [4 x [16 x ptr]], [4 x [16 x ptr]] }
%struct.SnowDWTContext = type { ptr, ptr, ptr }
%struct.Plane = type { i32, i32, [8 x [4 x %struct.SubBand]], i32, [4 x i8], i32, i32, i32, [4 x i8], i32 }
%struct.SubBand = type { i32, i32, i32, i32, i32, ptr, ptr, i32, i32, i32, ptr, ptr, [519 x [32 x i8]] }

; Function Attrs: nounwind uwtable
define void @ff_snow_reset_contexts(ptr noundef %0) #0 {
  %2 = alloca ptr, align 8
  %3 = alloca i32, align 4
  %4 = alloca i32, align 4
  %5 = alloca i32, align 4
  store ptr %0, ptr %2, align 8, !tbaa !27
  call void @llvm.lifetime.start.p0(i64 4, ptr %3) #6
  call void @llvm.lifetime.start.p0(i64 4, ptr %4) #6
  call void @llvm.lifetime.start.p0(i64 4, ptr %5) #6
  store i32 0, ptr %3, align 4, !tbaa !9
  br label %6

6:                                                ; preds = %43, %1
  %7 = load i32, ptr %3, align 4, !tbaa !9
  %8 = icmp slt i32 %7, 3
  br i1 %8, label %9, label %46

9:                                                ; preds = %6
  store i32 0, ptr %4, align 4, !tbaa !9
  br label %10

10:                                               ; preds = %39, %9
  %11 = load i32, ptr %4, align 4, !tbaa !9
  %12 = icmp slt i32 %11, 8
  br i1 %12, label %13, label %42

13:                                               ; preds = %10
  %14 = load i32, ptr %4, align 4, !tbaa !9
  %15 = icmp ne i32 %14, 0
  %16 = select i1 %15, i32 1, i32 0
  store i32 %16, ptr %5, align 4, !tbaa !9
  br label %17

17:                                               ; preds = %35, %13
  %18 = load i32, ptr %5, align 4, !tbaa !9
  %19 = icmp slt i32 %18, 4
  br i1 %19, label %20, label %38

20:                                               ; preds = %17
  %21 = load ptr, ptr %2, align 8, !tbaa !27
  %22 = getelementptr inbounds nuw %struct.SnowContext, ptr %21, i32 0, i32 46
  %23 = load i32, ptr %3, align 4, !tbaa !9
  %24 = sext i32 %23 to i64
  %25 = getelementptr inbounds [4 x %struct.Plane], ptr %22, i64 0, i64 %24
  %26 = getelementptr inbounds nuw %struct.Plane, ptr %25, i32 0, i32 2
  %27 = load i32, ptr %4, align 4, !tbaa !9
  %28 = sext i32 %27 to i64
  %29 = getelementptr inbounds [8 x [4 x %struct.SubBand]], ptr %26, i64 0, i64 %28
  %30 = load i32, ptr %5, align 4, !tbaa !9
  %31 = sext i32 %30 to i64
  %32 = getelementptr inbounds [4 x %struct.SubBand], ptr %29, i64 0, i64 %31
  %33 = getelementptr inbounds nuw %struct.SubBand, ptr %32, i32 0, i32 12
  %34 = getelementptr inbounds [519 x [32 x i8]], ptr %33, i64 0, i64 0
  call void @llvm.memset.p0.i64(ptr align 8 %34, i8 -128, i64 16608, i1 false)
  br label %35

35:                                               ; preds = %20
  %36 = load i32, ptr %5, align 4, !tbaa !9
  %37 = add nsw i32 %36, 1
  store i32 %37, ptr %5, align 4, !tbaa !9
  br label %17, !llvm.loop !29

38:                                               ; preds = %17
  br label %39

39:                                               ; preds = %38
  %40 = load i32, ptr %4, align 4, !tbaa !9
  %41 = add nsw i32 %40, 1
  store i32 %41, ptr %4, align 4, !tbaa !9
  br label %10, !llvm.loop !30

42:                                               ; preds = %10
  br label %43

43:                                               ; preds = %42
  %44 = load i32, ptr %3, align 4, !tbaa !9
  %45 = add nsw i32 %44, 1
  store i32 %45, ptr %3, align 4, !tbaa !9
  br label %6, !llvm.loop !31

46:                                               ; preds = %6
  %47 = load ptr, ptr %2, align 8, !tbaa !27
  %48 = getelementptr inbounds nuw %struct.SnowContext, ptr %47, i32 0, i32 11
  %49 = getelementptr inbounds [32 x i8], ptr %48, i64 0, i64 0
  call void @llvm.memset.p0.i64(ptr align 8 %49, i8 -128, i64 32, i1 false)
  %50 = load ptr, ptr %2, align 8, !tbaa !27
  %51 = getelementptr inbounds nuw %struct.SnowContext, ptr %50, i32 0, i32 12
  %52 = getelementptr inbounds [4224 x i8], ptr %51, i64 0, i64 0
  call void @llvm.memset.p0.i64(ptr align 8 %52, i8 -128, i64 4224, i1 false)
  call void @llvm.lifetime.end.p0(i64 4, ptr %5) #6
  call void @llvm.lifetime.end.p0(i64 4, ptr %4) #6
  call void @llvm.lifetime.end.p0(i64 4, ptr %3) #6
  ret void
}