; Function Attrs: nofree norecurse nosync nounwind memory(argmem: write) uwtable
define void @ff_snow_reset_contexts(ptr noundef writeonly captures(none) %0) local_unnamed_addr #3 {
  %invariant.gep25 = getelementptr inbounds nuw i8, ptr %0, i64 6760
  br label %.preheader

.preheader:                                       ; preds = %1, %9
  %indvars.iv36 = phi i64 [ 0, %1 ], [ %indvars.iv.next37, %9 ]
  %2 = mul nuw nsw i64 %indvars.iv36, 533800
  %gep26 = getelementptr inbounds nuw i8, ptr %invariant.gep25, i64 %2
  br label %3

3:                                                ; preds = %.preheader, %8
  %indvars.iv31 = phi i64 [ 0, %.preheader ], [ %indvars.iv.next32, %8 ]
  %.not = icmp ne i64 %indvars.iv31, 0
  %4 = mul nuw nsw i64 %indvars.iv31, 66720
  %5 = zext i1 %.not to i64
  %invariant.gep = getelementptr inbounds nuw i8, ptr %gep26, i64 %4
  br label %6

6:                                                ; preds = %3, %6
  %indvars.iv = phi i64 [ %5, %3 ], [ %indvars.iv.next, %6 ]
  %7 = mul nuw nsw i64 %indvars.iv, 16680
  %gep41 = getelementptr inbounds nuw i8, ptr %invariant.gep, i64 %7
  tail call void @llvm.memset.p0.i64(ptr noundef nonnull align 8 dereferenceable(16608) %gep41, i8 -128, i64 16608, i1 false)
  %indvars.iv.next = add nuw nsw i64 %indvars.iv, 1
  %exitcond.not = icmp eq i64 %indvars.iv.next, 4
  br i1 %exitcond.not, label %8, label %6, !llvm.loop !22

8:                                                ; preds = %6
  %indvars.iv.next32 = add nuw nsw i64 %indvars.iv31, 1
  %exitcond35.not = icmp eq i64 %indvars.iv.next32, 8
  br i1 %exitcond35.not, label %9, label %3, !llvm.loop !23

9:                                                ; preds = %8
  %indvars.iv.next37 = add nuw nsw i64 %indvars.iv36, 1
  %exitcond40.not = icmp eq i64 %indvars.iv.next37, 3
  br i1 %exitcond40.not, label %10, label %.preheader, !llvm.loop !24

10:                                               ; preds = %9
  %11 = getelementptr inbounds nuw i8, ptr %0, i64 2144
  tail call void @llvm.memset.p0.i64(ptr noundef nonnull align 8 dereferenceable(4256) %11, i8 -128, i64 4256, i1 false)
  ret void
}